target datalayout = "e-m:e-p270:32:32-p271:32:32-p272:64:64-i64:64-i128:128-f80:128-n8:16:32:64-S128"
target triple = "x86_64-pc-linux-gnu"

%struct.Agobj_s = type { %struct.Agtag_s, ptr }
%struct.Agtag_s = type { i32, i64 }
%struct.Agnodeinfo_t = type { %struct.Agrec_s, ptr, ptr, %struct.pointf_s, double, double, %struct.boxf, double, double, double, double, double, ptr, ptr, ptr, i8, i8, i8, i8, i32, i32, i32, ptr, double, i8, i8, ptr, ptr, i8, i64, i8, i8, i8, ptr, ptr, %struct.elist, %struct.elist, %struct.elist, %struct.elist, %struct.elist, ptr, i32, ptr, i32, i32, double, %struct.elist, %struct.elist, %struct.elist, %struct.elist, ptr, i32, i32, i32, [1 x double] }
%struct.Agrec_s = type { ptr, ptr }
%struct.pointf_s = type { double, double }
%struct.boxf = type { %struct.pointf_s, %struct.pointf_s }
%struct.elist = type { ptr, i64 }
%struct.Agedge_s = type { %struct.Agobj_s, %struct.dtlink_s_, %struct.dtlink_s_, ptr }
%struct.dtlink_s_ = type { ptr, %union.anon }
%union.anon = type { ptr }

; Function Attrs: nounwind uwtable
define void @zapinlist(ptr noundef %0, ptr noundef %1) #0 {
  %3 = alloca ptr, align 8
  %4 = alloca ptr, align 8
  %5 = alloca i64, align 8
  %6 = alloca i32, align 4
  store ptr %0, ptr %3, align 8, !tbaa !47
  store ptr %1, ptr %4, align 8, !tbaa !19
  call void @llvm.lifetime.start.p0(i64 8, ptr %5) #11
  store i64 0, ptr %5, align 8, !tbaa !44
  br label %7

7:                                                ; preds = %49, %2
  %8 = load i64, ptr %5, align 8, !tbaa !44
  %9 = load ptr, ptr %3, align 8, !tbaa !47
  %10 = getelementptr inbounds nuw %struct.elist, ptr %9, i32 0, i32 1
  %11 = load i64, ptr %10, align 8, !tbaa !14
  %12 = icmp ult i64 %8, %11
  br i1 %12, label %14, label %13

13:                                               ; preds = %7
  store i32 2, ptr %6, align 4
  br label %52

14:                                               ; preds = %7
  %15 = load ptr, ptr %3, align 8, !tbaa !47
  %16 = getelementptr inbounds nuw %struct.elist, ptr %15, i32 0, i32 0
  %17 = load ptr, ptr %16, align 8, !tbaa !18
  %18 = load i64, ptr %5, align 8, !tbaa !44
  %19 = getelementptr inbounds nuw ptr, ptr %17, i64 %18
  %20 = load ptr, ptr %19, align 8, !tbaa !19
  %21 = load ptr, ptr %4, align 8, !tbaa !19
  %22 = icmp eq ptr %20, %21
  br i1 %22, label %23, label %48

23:                                               ; preds = %14
  %24 = load ptr, ptr %3, align 8, !tbaa !47
  %25 = getelementptr inbounds nuw %struct.elist, ptr %24, i32 0, i32 1
  %26 = load i64, ptr %25, align 8, !tbaa !14
  %27 = add i64 %26, -1
  store i64 %27, ptr %25, align 8, !tbaa !14
  %28 = load ptr, ptr %3, align 8, !tbaa !47
  %29 = getelementptr inbounds nuw %struct.elist, ptr %28, i32 0, i32 0
  %30 = load ptr, ptr %29, align 8, !tbaa !18
  %31 = load ptr, ptr %3, align 8, !tbaa !47
  %32 = getelementptr inbounds nuw %struct.elist, ptr %31, i32 0, i32 1
  %33 = load i64, ptr %32, align 8, !tbaa !14
  %34 = getelementptr inbounds nuw ptr, ptr %30, i64 %33
  %35 = load ptr, ptr %34, align 8, !tbaa !19
  %36 = load ptr, ptr %3, align 8, !tbaa !47
  %37 = getelementptr inbounds nuw %struct.elist, ptr %36, i32 0, i32 0
  %38 = load ptr, ptr %37, align 8, !tbaa !18
  %39 = load i64, ptr %5, align 8, !tbaa !44
  %40 = getelementptr inbounds nuw ptr, ptr %38, i64 %39
  store ptr %35, ptr %40, align 8, !tbaa !19
  %41 = load ptr, ptr %3, align 8, !tbaa !47
  %42 = getelementptr inbounds nuw %struct.elist, ptr %41, i32 0, i32 0
  %43 = load ptr, ptr %42, align 8, !tbaa !18
  %44 = load ptr, ptr %3, align 8, !tbaa !47
  %45 = getelementptr inbounds nuw %struct.elist, ptr %44, i32 0, i32 1
  %46 = load i64, ptr %45, align 8, !tbaa !14
  %47 = getelementptr inbounds nuw ptr, ptr %43, i64 %46
  store ptr null, ptr %47, align 8, !tbaa !19
  store i32 2, ptr %6, align 4
  br label %52

48:                                               ; preds = %14
  br label %49

49:                                               ; preds = %48
  %50 = load i64, ptr %5, align 8, !tbaa !44
  %51 = add i64 %50, 1
  store i64 %51, ptr %5, align 8, !tbaa !44
  br label %7, !llvm.loop !49

52:                                               ; preds = %23, %13
  call void @llvm.lifetime.end.p0(i64 8, ptr %5) #11
  br label %53

53:                                               ; preds = %52
  ret void
}

; Function Attrs: nounwind uwtable
define void @delete_fast_edge(ptr noundef %0) #0 {
  %2 = alloca ptr, align 8
  store ptr %0, ptr %2, align 8, !tbaa !19
  %3 = load ptr, ptr %2, align 8, !tbaa !19
  %4 = getelementptr inbounds nuw %struct.Agobj_s, ptr %3, i32 0, i32 0
  %5 = load i32, ptr %4, align 8
  %6 = and i32 %5, 3
  %7 = icmp eq i32 %6, 3
  br i1 %7, label %8, label %10

8:                                                ; preds = %1
  %9 = load ptr, ptr %2, align 8, !tbaa !19
  br label %13

10:                                               ; preds = %1
  %11 = load ptr, ptr %2, align 8, !tbaa !19
  %12 = getelementptr inbounds %struct.Agedge_s, ptr %11, i64 1
  br label %13

13:                                               ; preds = %10, %8
  %14 = phi ptr [ %9, %8 ], [ %12, %10 ]
  %15 = getelementptr inbounds nuw %struct.Agedge_s, ptr %14, i32 0, i32 3
  %16 = load ptr, ptr %15, align 8, !tbaa !21
  %17 = getelementptr inbounds nuw %struct.Agobj_s, ptr %16, i32 0, i32 1
  %18 = load ptr, ptr %17, align 8, !tbaa !8
  %19 = getelementptr inbounds nuw %struct.Agnodeinfo_t, ptr %18, i32 0, i32 36
  %20 = load ptr, ptr %2, align 8, !tbaa !19
  call void @zapinlist(ptr noundef %19, ptr noundef %20)
  %21 = load ptr, ptr %2, align 8, !tbaa !19
  %22 = getelementptr inbounds nuw %struct.Agobj_s, ptr %21, i32 0, i32 0
  %23 = load i32, ptr %22, align 8
  %24 = and i32 %23, 3
  %25 = icmp eq i32 %24, 2
  br i1 %25, label %26, label %28

26:                                               ; preds = %13
  %27 = load ptr, ptr %2, align 8, !tbaa !19
  br label %31

28:                                               ; preds = %13
  %29 = load ptr, ptr %2, align 8, !tbaa !19
  %30 = getelementptr inbounds %struct.Agedge_s, ptr %29, i64 -1
  br label %31

31:                                               ; preds = %28, %26
  %32 = phi ptr [ %27, %26 ], [ %30, %28 ]
  %33 = getelementptr inbounds nuw %struct.Agedge_s, ptr %32, i32 0, i32 3
  %34 = load ptr, ptr %33, align 8, !tbaa !21
  %35 = getelementptr inbounds nuw %struct.Agobj_s, ptr %34, i32 0, i32 1
  %36 = load ptr, ptr %35, align 8, !tbaa !8
  %37 = getelementptr inbounds nuw %struct.Agnodeinfo_t, ptr %36, i32 0, i32 35
  %38 = load ptr, ptr %2, align 8, !tbaa !19
  call void @zapinlist(ptr noundef %37, ptr noundef %38)
  ret void
}