; Function Attrs: nofree norecurse nosync nounwind memory(readwrite, inaccessiblemem: none) uwtable
define void @delete_fast_edge(ptr noundef readonly captures(address) %0) local_unnamed_addr #2 {
  %2 = load i32, ptr %0, align 8
  %3 = and i32 %2, 3
  %4 = icmp eq i32 %3, 3
  %.idx = select i1 %4, i64 0, i64 64
  %5 = getelementptr inbounds nuw i8, ptr %0, i64 %.idx
  %6 = getelementptr inbounds nuw i8, ptr %5, i64 56
  %7 = load ptr, ptr %6, align 8, !tbaa !16
  %8 = getelementptr inbounds nuw i8, ptr %7, i64 16
  %9 = load ptr, ptr %8, align 8, !tbaa !3
  %10 = getelementptr inbounds nuw i8, ptr %9, i64 280
  %11 = load i64, ptr %10, align 8, !tbaa !41
  %.not.i = icmp eq i64 %11, 0
  br i1 %.not.i, label %zapinlist.exit, label %.lr.ph.i

.lr.ph.i:                                         ; preds = %1
  %12 = getelementptr inbounds nuw i8, ptr %9, i64 272
  %13 = load ptr, ptr %12, align 8, !tbaa !42
  br label %14

14:                                               ; preds = %23, %.lr.ph.i
  %.018.i = phi i64 [ 0, %.lr.ph.i ], [ %24, %23 ]
  %15 = getelementptr inbounds nuw ptr, ptr %13, i64 %.018.i
  %16 = load ptr, ptr %15, align 8, !tbaa !12
  %17 = icmp eq ptr %16, %0
  br i1 %17, label %18, label %23

18:                                               ; preds = %14
  %19 = getelementptr inbounds nuw ptr, ptr %13, i64 %.018.i
  %20 = add i64 %11, -1
  store i64 %20, ptr %10, align 8, !tbaa !41
  %21 = getelementptr inbounds nuw ptr, ptr %13, i64 %20
  %22 = load ptr, ptr %21, align 8, !tbaa !12
  store ptr %22, ptr %19, align 8, !tbaa !12
  store ptr null, ptr %21, align 8, !tbaa !12
  %.pre = load i32, ptr %0, align 8
  %.pre19 = and i32 %.pre, 3
  br label %zapinlist.exit

23:                                               ; preds = %14
  %24 = add nuw i64 %.018.i, 1
  %exitcond.not.i = icmp eq i64 %24, %11
  br i1 %exitcond.not.i, label %zapinlist.exit, label %14, !llvm.loop !43

zapinlist.exit:                                   ; preds = %23, %1, %18
  %.pre-phi = phi i32 [ %3, %1 ], [ %.pre19, %18 ], [ %3, %23 ]
  %25 = icmp eq i32 %.pre-phi, 2
  %.idx8 = select i1 %25, i64 0, i64 -64
  %26 = getelementptr inbounds i8, ptr %0, i64 %.idx8
  %27 = getelementptr inbounds nuw i8, ptr %26, i64 56
  %28 = load ptr, ptr %27, align 8, !tbaa !16
  %29 = getelementptr inbounds nuw i8, ptr %28, i64 16
  %30 = load ptr, ptr %29, align 8, !tbaa !3
  %31 = getelementptr inbounds nuw i8, ptr %30, i64 264
  %32 = load i64, ptr %31, align 8, !tbaa !41
  %.not.i9 = icmp eq i64 %32, 0
  br i1 %.not.i9, label %zapinlist.exit13, label %.lr.ph.i10

.lr.ph.i10:                                       ; preds = %zapinlist.exit
  %33 = getelementptr inbounds nuw i8, ptr %30, i64 256
  %34 = load ptr, ptr %33, align 8, !tbaa !42
  br label %35

35:                                               ; preds = %44, %.lr.ph.i10
  %.018.i11 = phi i64 [ 0, %.lr.ph.i10 ], [ %45, %44 ]
  %36 = getelementptr inbounds nuw ptr, ptr %34, i64 %.018.i11
  %37 = load ptr, ptr %36, align 8, !tbaa !12
  %38 = icmp eq ptr %37, %0
  br i1 %38, label %39, label %44

39:                                               ; preds = %35
  %40 = getelementptr inbounds nuw ptr, ptr %34, i64 %.018.i11
  %41 = add i64 %32, -1
  store i64 %41, ptr %31, align 8, !tbaa !41
  %42 = getelementptr inbounds nuw ptr, ptr %34, i64 %41
  %43 = load ptr, ptr %42, align 8, !tbaa !12
  store ptr %43, ptr %40, align 8, !tbaa !12
  store ptr null, ptr %42, align 8, !tbaa !12
  br label %zapinlist.exit13

44:                                               ; preds = %35
  %45 = add nuw i64 %.018.i11, 1
  %exitcond.not.i12 = icmp eq i64 %45, %32
  br i1 %exitcond.not.i12, label %zapinlist.exit13, label %35, !llvm.loop !43

zapinlist.exit13:                                 ; preds = %44, %zapinlist.exit, %39
  ret void
}